; Function Attrs: mustprogress nounwind uwtable
define hidden noundef zeroext i1 @_ZN8PhaseCFG34unrelated_load_in_store_null_blockEP4NodeS1_(ptr nocapture noundef nonnull readonly align 8 dereferenceable(160) %0, ptr noundef readonly %1, ptr nocapture noundef readonly %2) local_unnamed_addr #0 align 2 {
  %4 = getelementptr inbounds i8, ptr %1, i64 40
  %5 = load i32, ptr %4, align 8
  %6 = getelementptr inbounds i8, ptr %0, i64 120
  %7 = load ptr, ptr %6, align 8
  %8 = zext i32 %5 to i64
  %9 = getelementptr inbounds ptr, ptr %7, i64 %8
  %10 = load ptr, ptr %9, align 8
  %11 = getelementptr inbounds i8, ptr %2, i64 40
  %12 = load i32, ptr %11, align 8
  %13 = zext i32 %12 to i64
  %14 = getelementptr inbounds ptr, ptr %7, i64 %13
  %15 = load ptr, ptr %14, align 8
  %16 = getelementptr inbounds i8, ptr %10, i64 40
  %17 = load i32, ptr %16, align 8
  %18 = add i32 %17, -1
  %19 = getelementptr inbounds i8, ptr %10, i64 24
  %20 = load i32, ptr %19, align 8
  %21 = icmp ugt i32 %20, %18
  br i1 %21, label %22, label %_ZNK5Block7end_idxEv.exit.i

22:                                               ; preds = %3
  %23 = getelementptr inbounds i8, ptr %10, i64 32
  %24 = load ptr, ptr %23, align 8
  %25 = zext i32 %18 to i64
  %26 = getelementptr inbounds ptr, ptr %24, i64 %25
  %27 = load ptr, ptr %26, align 8
  br label %_ZNK5Block7end_idxEv.exit.i

_ZNK5Block7end_idxEv.exit.i:                      ; preds = %22, %3
  %28 = phi ptr [ %27, %22 ], [ null, %3 ]
  %29 = load ptr, ptr %28, align 8
  %30 = getelementptr inbounds i8, ptr %29, i64 32
  %31 = load ptr, ptr %30, align 8
  %32 = tail call noundef ptr %31(ptr noundef nonnull align 8 dereferenceable(52) %28) #14
  %33 = icmp eq ptr %32, %28
  %34 = getelementptr inbounds i8, ptr %10, i64 72
  %35 = load i32, ptr %34, align 8
  %36 = select i1 %33, i32 0, i32 %35
  %37 = sub i32 %18, %36
  %38 = load i32, ptr %19, align 8
  %39 = icmp ugt i32 %38, %37
  br i1 %39, label %40, label %_ZNK5Block3endEv.exit

40:                                               ; preds = %_ZNK5Block7end_idxEv.exit.i
  %41 = getelementptr inbounds i8, ptr %10, i64 32
  %42 = load ptr, ptr %41, align 8
  %43 = zext i32 %37 to i64
  %44 = getelementptr inbounds ptr, ptr %42, i64 %43
  %45 = load ptr, ptr %44, align 8
  br label %_ZNK5Block3endEv.exit

_ZNK5Block3endEv.exit:                            ; preds = %_ZNK5Block7end_idxEv.exit.i, %40
  %46 = phi ptr [ %45, %40 ], [ null, %_ZNK5Block7end_idxEv.exit.i ]
  %47 = getelementptr inbounds i8, ptr %46, i64 44
  %48 = load i32, ptr %47, align 4
  %49 = and i32 %48, 127
  %50 = icmp eq i32 %49, 74
  br i1 %50, label %51, label %_ZN5Block9dominatesEPS_.exit.thread

51:                                               ; preds = %_ZNK5Block3endEv.exit
  %52 = getelementptr inbounds i8, ptr %46, i64 8
  %53 = load ptr, ptr %52, align 8
  %54 = getelementptr inbounds i8, ptr %53, i64 8
  %55 = load ptr, ptr %54, align 8
  %56 = icmp eq ptr %55, %1
  br i1 %56, label %57, label %_ZN5Block9dominatesEPS_.exit.thread

57:                                               ; preds = %51
  %58 = getelementptr inbounds i8, ptr %10, i64 80
  %59 = load i32, ptr %58, align 8
  %60 = getelementptr inbounds i8, ptr %15, i64 80
  %61 = load i32, ptr %60, align 8
  %62 = sub i32 %59, %61
  %63 = icmp sgt i32 %62, 0
  br i1 %63, label %_ZN5Block9dominatesEPS_.exit.thread, label %.preheader.i

.preheader.i:                                     ; preds = %57
  %64 = icmp slt i32 %62, 0
  br i1 %64, label %.lr.ph.i, label %_ZN5Block9dominatesEPS_.exit

.lr.ph.i:                                         ; preds = %.preheader.i, %.lr.ph.i
  %.011.i = phi i32 [ %67, %.lr.ph.i ], [ %62, %.preheader.i ]
  %.0710.i = phi ptr [ %66, %.lr.ph.i ], [ %15, %.preheader.i ]
  %65 = getelementptr inbounds i8, ptr %.0710.i, i64 88
  %66 = load ptr, ptr %65, align 8
  %67 = add i32 %.011.i, 1
  %exitcond.not.i = icmp eq i32 %67, 0
  br i1 %exitcond.not.i, label %_ZN5Block9dominatesEPS_.exit, label %.lr.ph.i, !llvm.loop !24

_ZN5Block9dominatesEPS_.exit:                     ; preds = %.lr.ph.i, %.preheader.i
  %.07.lcssa.i = phi ptr [ %15, %.preheader.i ], [ %66, %.lr.ph.i ]
  %68 = icmp eq ptr %.07.lcssa.i, %10
  br i1 %68, label %69, label %_ZN5Block9dominatesEPS_.exit.thread

69:                                               ; preds = %_ZN5Block9dominatesEPS_.exit
  %70 = tail call noundef ptr @_ZN4Node13find_out_withEi(ptr noundef nonnull align 8 dereferenceable(52) %46, i32 noundef 180) #14
  %71 = tail call noundef ptr @_ZN4Node13find_out_withEi(ptr noundef nonnull align 8 dereferenceable(52) %70, i32 noundef 285) #14
  %72 = getelementptr inbounds i8, ptr %71, i64 40
  %73 = load i32, ptr %72, align 8
  %74 = load ptr, ptr %6, align 8
  %75 = zext i32 %73 to i64
  %76 = getelementptr inbounds ptr, ptr %74, i64 %75
  %77 = load ptr, ptr %76, align 8
  %78 = icmp eq ptr %77, %15
  br label %_ZN5Block9dominatesEPS_.exit.thread

_ZN5Block9dominatesEPS_.exit.thread:              ; preds = %57, %_ZNK5Block3endEv.exit, %51, %_ZN5Block9dominatesEPS_.exit, %69
  %.0 = phi i1 [ %78, %69 ], [ false, %_ZN5Block9dominatesEPS_.exit ], [ false, %51 ], [ false, %_ZNK5Block3endEv.exit ], [ false, %57 ]
  ret i1 %.0
}